; Function Attrs: mustprogress uwtable
define void @_ZNK8QuantLib15FdmKlugeExtOUOp11apply_mixedERKNS_5ArrayE(ptr dead_on_unwind noalias writable sret(%"class.QuantLib::Array") align 8 %agg.result, ptr noundef nonnull align 8 dereferenceable(304) %this, ptr noundef nonnull align 8 dereferenceable(16) %r) unnamed_addr #6 align 2 personality ptr @__gxx_personality_v0 {
entry:
  %ref.tmp = alloca %"class.QuantLib::Array", align 8
  %ref.tmp2 = alloca %"class.QuantLib::Array", align 8
  call void @llvm.lifetime.start.p0(i64 16, ptr nonnull %ref.tmp) #23
  %corrMap_ = getelementptr inbounds nuw i8, ptr %this, i64 128
  call void @_ZNK8QuantLib17NinePointLinearOp5applyERKNS_5ArrayE(ptr dead_on_unwind nonnull writable sret(%"class.QuantLib::Array") align 8 %ref.tmp, ptr noundef nonnull align 8 dereferenceable(176) %corrMap_, ptr noundef nonnull align 8 dereferenceable(16) %r)
  call void @llvm.lifetime.start.p0(i64 16, ptr nonnull %ref.tmp2) #23
  %klugeOp_ = getelementptr inbounds nuw i8, ptr %this, i64 96
  %0 = load ptr, ptr %klugeOp_, align 8, !tbaa !58
  %cmp.not.i = icmp eq ptr %0, null
  br i1 %cmp.not.i, label %cond.false.i, label %invoke.cont, !prof !47

cond.false.i:                                     ; preds = %entry
  invoke void @_ZN5boost16assertion_failedEPKcS1_S1_l(ptr noundef nonnull @.str.16, ptr noundef nonnull @__PRETTY_FUNCTION__._ZNK5boost10shared_ptrIN8QuantLib14FdmExtOUJumpOpEEptEv, ptr noundef nonnull @.str.17, i64 noundef 784)
          to label %.noexc unwind label %lpad

.noexc:                                           ; preds = %cond.false.i
  %.pre.i = load ptr, ptr %klugeOp_, align 8, !tbaa !58
  br label %invoke.cont

invoke.cont:                                      ; preds = %.noexc, %entry
  %1 = phi ptr [ %0, %entry ], [ %.pre.i, %.noexc ]
  %vtable = load ptr, ptr %1, align 8, !tbaa !28
  %vfn = getelementptr inbounds i8, ptr %vtable, i64 48
  %2 = load ptr, ptr %vfn, align 8
  invoke void %2(ptr dead_on_unwind nonnull writable sret(%"class.QuantLib::Array") align 8 %ref.tmp2, ptr noundef nonnull align 8 dereferenceable(336) %1, ptr noundef nonnull align 8 dereferenceable(16) %r)
          to label %invoke.cont3 unwind label %lpad

invoke.cont3:                                     ; preds = %invoke.cont
  invoke void @_ZN8QuantLibplEONS_5ArrayES1_(ptr dead_on_unwind writable sret(%"class.QuantLib::Array") align 8 %agg.result, ptr noundef nonnull align 8 dereferenceable(16) %ref.tmp, ptr noundef nonnull align 8 dereferenceable(16) %ref.tmp2)
          to label %invoke.cont5 unwind label %lpad4

invoke.cont5:                                     ; preds = %invoke.cont3
  %3 = load ptr, ptr %ref.tmp2, align 8, !tbaa !3
  %cmp.not.i.i = icmp eq ptr %3, null
  br i1 %cmp.not.i.i, label %_ZN8QuantLib5ArrayD2Ev.exit, label %_ZNKSt14default_deleteIA_dEclIdEENSt9enable_ifIXsr14is_convertibleIPA_T_PS0_EE5valueEvE4typeEPS4_.exit.i.i

_ZNKSt14default_deleteIA_dEclIdEENSt9enable_ifIXsr14is_convertibleIPA_T_PS0_EE5valueEvE4typeEPS4_.exit.i.i: ; preds = %invoke.cont5
  call void @_ZdaPv(ptr noundef nonnull %3) #26
  br label %_ZN8QuantLib5ArrayD2Ev.exit

_ZN8QuantLib5ArrayD2Ev.exit:                      ; preds = %invoke.cont5, %_ZNKSt14default_deleteIA_dEclIdEENSt9enable_ifIXsr14is_convertibleIPA_T_PS0_EE5valueEvE4typeEPS4_.exit.i.i
  call void @llvm.lifetime.end.p0(i64 16, ptr nonnull %ref.tmp2) #23
  %4 = load ptr, ptr %ref.tmp, align 8, !tbaa !3
  %cmp.not.i.i3 = icmp eq ptr %4, null
  br i1 %cmp.not.i.i3, label %_ZN8QuantLib5ArrayD2Ev.exit5, label %_ZNKSt14default_deleteIA_dEclIdEENSt9enable_ifIXsr14is_convertibleIPA_T_PS0_EE5valueEvE4typeEPS4_.exit.i.i4

_ZNKSt14default_deleteIA_dEclIdEENSt9enable_ifIXsr14is_convertibleIPA_T_PS0_EE5valueEvE4typeEPS4_.exit.i.i4: ; preds = %_ZN8QuantLib5ArrayD2Ev.exit
  call void @_ZdaPv(ptr noundef nonnull %4) #26
  br label %_ZN8QuantLib5ArrayD2Ev.exit5

_ZN8QuantLib5ArrayD2Ev.exit5:                     ; preds = %_ZN8QuantLib5ArrayD2Ev.exit, %_ZNKSt14default_deleteIA_dEclIdEENSt9enable_ifIXsr14is_convertibleIPA_T_PS0_EE5valueEvE4typeEPS4_.exit.i.i4
  call void @llvm.lifetime.end.p0(i64 16, ptr nonnull %ref.tmp) #23
  ret void

lpad:                                             ; preds = %cond.false.i, %invoke.cont
  %5 = landingpad { ptr, i32 }
          cleanup
  br label %ehcleanup

lpad4:                                            ; preds = %invoke.cont3
  %6 = landingpad { ptr, i32 }
          cleanup
  %7 = load ptr, ptr %ref.tmp2, align 8, !tbaa !3
  %cmp.not.i.i6 = icmp eq ptr %7, null
  br i1 %cmp.not.i.i6, label %ehcleanup, label %_ZNKSt14default_deleteIA_dEclIdEENSt9enable_ifIXsr14is_convertibleIPA_T_PS0_EE5valueEvE4typeEPS4_.exit.i.i7

_ZNKSt14default_deleteIA_dEclIdEENSt9enable_ifIXsr14is_convertibleIPA_T_PS0_EE5valueEvE4typeEPS4_.exit.i.i7: ; preds = %lpad4
  call void @_ZdaPv(ptr noundef nonnull %7) #26
  br label %ehcleanup

ehcleanup:                                        ; preds = %_ZNKSt14default_deleteIA_dEclIdEENSt9enable_ifIXsr14is_convertibleIPA_T_PS0_EE5valueEvE4typeEPS4_.exit.i.i7, %lpad4, %lpad
  %.pn = phi { ptr, i32 } [ %5, %lpad ], [ %6, %lpad4 ], [ %6, %_ZNKSt14default_deleteIA_dEclIdEENSt9enable_ifIXsr14is_convertibleIPA_T_PS0_EE5valueEvE4typeEPS4_.exit.i.i7 ]
  call void @llvm.lifetime.end.p0(i64 16, ptr nonnull %ref.tmp2) #23
  %8 = load ptr, ptr %ref.tmp, align 8, !tbaa !3
  %cmp.not.i.i9 = icmp eq ptr %8, null
  br i1 %cmp.not.i.i9, label %_ZN8QuantLib5ArrayD2Ev.exit11, label %_ZNKSt14default_deleteIA_dEclIdEENSt9enable_ifIXsr14is_convertibleIPA_T_PS0_EE5valueEvE4typeEPS4_.exit.i.i10

_ZNKSt14default_deleteIA_dEclIdEENSt9enable_ifIXsr14is_convertibleIPA_T_PS0_EE5valueEvE4typeEPS4_.exit.i.i10: ; preds = %ehcleanup
  call void @_ZdaPv(ptr noundef nonnull %8) #26
  br label %_ZN8QuantLib5ArrayD2Ev.exit11

_ZN8QuantLib5ArrayD2Ev.exit11:                    ; preds = %ehcleanup, %_ZNKSt14default_deleteIA_dEclIdEENSt9enable_ifIXsr14is_convertibleIPA_T_PS0_EE5valueEvE4typeEPS4_.exit.i.i10
  call void @llvm.lifetime.end.p0(i64 16, ptr nonnull %ref.tmp) #23
  resume { ptr, i32 } %.pn
}